; Function Attrs: mustprogress uwtable
define hidden void @_ZN4cvc58internal6theory4bags18InferenceGenerator19getMultiplicityTermENS0_12NodeTemplateILb1EEES5_(ptr noalias sret(%"class.cvc5::internal::NodeTemplate") align 8 %agg.result, ptr nocapture noundef nonnull readonly align 8 dereferenceable(56) %this, ptr nocapture noundef readonly %element, ptr nocapture noundef readonly %bag) local_unnamed_addr #3 align 2 personality ptr @__gxx_personality_v0 {
entry:
  %nb.i = alloca %"class.cvc5::internal::NodeBuilder", align 8
  %agg.tmp.i = alloca %"class.cvc5::internal::NodeTemplate.60", align 8
  %agg.tmp4.i = alloca %"class.cvc5::internal::NodeTemplate.60", align 8
  %0 = load ptr, ptr %this, align 8
  %1 = load ptr, ptr %element, align 8
  %2 = load ptr, ptr %bag, align 8
  call void @llvm.lifetime.start.p0(i64 120, ptr nonnull %nb.i)
  call void @llvm.lifetime.start.p0(i64 8, ptr nonnull %agg.tmp.i)
  call void @llvm.lifetime.start.p0(i64 8, ptr nonnull %agg.tmp4.i)
  call void @_ZN4cvc58internal11NodeBuilderC1EPNS0_11NodeManagerENS0_4kind6Kind_tE(ptr noundef nonnull align 8 dereferenceable(116) %nb.i, ptr noundef nonnull %0, i32 noundef 281)
  store ptr %1, ptr %agg.tmp.i, align 8, !noalias !97
  %call.i = invoke noundef nonnull align 8 dereferenceable(116) ptr @_ZN4cvc58internal11NodeBuilderlsENS0_12NodeTemplateILb0EEE(ptr noundef nonnull align 8 dereferenceable(116) %nb.i, ptr noundef nonnull %agg.tmp.i)
          to label %invoke.cont3.i unwind label %lpad2.i, !noalias !97

invoke.cont3.i:                                   ; preds = %entry
  store ptr %2, ptr %agg.tmp4.i, align 8, !noalias !97
  %call8.i = invoke noundef nonnull align 8 dereferenceable(116) ptr @_ZN4cvc58internal11NodeBuilderlsENS0_12NodeTemplateILb0EEE(ptr noundef nonnull align 8 dereferenceable(116) %call.i, ptr noundef nonnull %agg.tmp4.i)
          to label %invoke.cont7.i unwind label %lpad6.i, !noalias !97

invoke.cont7.i:                                   ; preds = %invoke.cont3.i
  invoke void @_ZN4cvc58internal11NodeBuilder13constructNodeEv(ptr sret(%"class.cvc5::internal::NodeTemplate") align 8 %agg.result, ptr noundef nonnull align 8 dereferenceable(116) %nb.i)
          to label %invoke.cont4 unwind label %lpad.i

lpad.i:                                           ; preds = %invoke.cont7.i
  %3 = landingpad { ptr, i32 }
          cleanup
  br label %ehcleanup10.i

lpad2.i:                                          ; preds = %entry
  %4 = landingpad { ptr, i32 }
          cleanup
  br label %ehcleanup10.i

lpad6.i:                                          ; preds = %invoke.cont3.i
  %5 = landingpad { ptr, i32 }
          cleanup
  br label %ehcleanup10.i

ehcleanup10.i:                                    ; preds = %lpad6.i, %lpad2.i, %lpad.i
  %.pn2.i = phi { ptr, i32 } [ %3, %lpad.i ], [ %5, %lpad6.i ], [ %4, %lpad2.i ]
  call void @_ZN4cvc58internal11NodeBuilderD1Ev(ptr noundef nonnull align 8 dereferenceable(116) %nb.i) #16
  resume { ptr, i32 } %.pn2.i

invoke.cont4:                                     ; preds = %invoke.cont7.i
  call void @_ZN4cvc58internal11NodeBuilderD1Ev(ptr noundef nonnull align 8 dereferenceable(116) %nb.i) #16
  call void @llvm.lifetime.end.p0(i64 120, ptr nonnull %nb.i)
  call void @llvm.lifetime.end.p0(i64 8, ptr nonnull %agg.tmp.i)
  call void @llvm.lifetime.end.p0(i64 8, ptr nonnull %agg.tmp4.i)
  ret void
}